target datalayout = "e-m:e-p270:32:32-p271:32:32-p272:64:64-i64:64-i128:128-f80:128-n8:16:32:64-S128"
target triple = "x86_64-pc-linux-gnu"

@ossl_rc440_functions = constant [15 x { i32, [4 x i8], ptr }] [{ i32, [4 x i8], ptr } { i32 1, [4 x i8] zeroinitializer, ptr @rc4_40_newctx }, { i32, [4 x i8], ptr } { i32 7, [4 x i8] zeroinitializer, ptr @rc4_freectx }, { i32, [4 x i8], ptr } { i32 8, [4 x i8] zeroinitializer, ptr @rc4_dupctx }, { i32, [4 x i8], ptr } { i32 2, [4 x i8] zeroinitializer, ptr @rc4_einit }, { i32, [4 x i8], ptr } { i32 3, [4 x i8] zeroinitializer, ptr @rc4_dinit }, { i32, [4 x i8], ptr } { i32 4, [4 x i8] zeroinitializer, ptr @ossl_cipher_generic_stream_update }, { i32, [4 x i8], ptr } { i32 5, [4 x i8] zeroinitializer, ptr @ossl_cipher_generic_stream_final }, { i32, [4 x i8], ptr } { i32 6, [4 x i8] zeroinitializer, ptr @ossl_cipher_generic_cipher }, { i32, [4 x i8], ptr } { i32 9, [4 x i8] zeroinitializer, ptr @rc4_40_get_params }, { i32, [4 x i8], ptr } { i32 10, [4 x i8] zeroinitializer, ptr @ossl_cipher_generic_get_ctx_params }, { i32, [4 x i8], ptr } { i32 11, [4 x i8] zeroinitializer, ptr @ossl_cipher_var_keylen_set_ctx_params }, { i32, [4 x i8], ptr } { i32 12, [4 x i8] zeroinitializer, ptr @ossl_cipher_generic_gettable_params }, { i32, [4 x i8], ptr } { i32 13, [4 x i8] zeroinitializer, ptr @ossl_cipher_generic_gettable_ctx_params }, { i32, [4 x i8], ptr } { i32 14, [4 x i8] zeroinitializer, ptr @ossl_cipher_var_keylen_settable_ctx_params }, { i32, [4 x i8], ptr } zeroinitializer], align 16
@ossl_rc4128_functions = constant [15 x { i32, [4 x i8], ptr }] [{ i32, [4 x i8], ptr } { i32 1, [4 x i8] zeroinitializer, ptr @rc4_128_newctx }, { i32, [4 x i8], ptr } { i32 7, [4 x i8] zeroinitializer, ptr @rc4_freectx }, { i32, [4 x i8], ptr } { i32 8, [4 x i8] zeroinitializer, ptr @rc4_dupctx }, { i32, [4 x i8], ptr } { i32 2, [4 x i8] zeroinitializer, ptr @rc4_einit }, { i32, [4 x i8], ptr } { i32 3, [4 x i8] zeroinitializer, ptr @rc4_dinit }, { i32, [4 x i8], ptr } { i32 4, [4 x i8] zeroinitializer, ptr @ossl_cipher_generic_stream_update }, { i32, [4 x i8], ptr } { i32 5, [4 x i8] zeroinitializer, ptr @ossl_cipher_generic_stream_final }, { i32, [4 x i8], ptr } { i32 6, [4 x i8] zeroinitializer, ptr @ossl_cipher_generic_cipher }, { i32, [4 x i8], ptr } { i32 9, [4 x i8] zeroinitializer, ptr @rc4_128_get_params }, { i32, [4 x i8], ptr } { i32 10, [4 x i8] zeroinitializer, ptr @ossl_cipher_generic_get_ctx_params }, { i32, [4 x i8], ptr } { i32 11, [4 x i8] zeroinitializer, ptr @ossl_cipher_var_keylen_set_ctx_params }, { i32, [4 x i8], ptr } { i32 12, [4 x i8] zeroinitializer, ptr @ossl_cipher_generic_gettable_params }, { i32, [4 x i8], ptr } { i32 13, [4 x i8] zeroinitializer, ptr @ossl_cipher_generic_gettable_ctx_params }, { i32, [4 x i8], ptr } { i32 14, [4 x i8] zeroinitializer, ptr @ossl_cipher_var_keylen_settable_ctx_params }, { i32, [4 x i8], ptr } zeroinitializer], align 16
@.str = private unnamed_addr constant [58 x i8] c"../openssl/providers/implementations/ciphers/cipher_rc4.c\00", align 1

; Function Attrs: nounwind uwtable
define internal ptr @rc4_40_newctx(ptr noundef %0) #0 {
  %2 = alloca ptr, align 8
  %3 = alloca ptr, align 8
  %4 = alloca ptr, align 8
  %5 = alloca i32, align 4
  store ptr %0, ptr %3, align 8, !tbaa !3
  call void @llvm.lifetime.start.p0(i64 8, ptr %4) #4
  %6 = call i32 @ossl_prov_is_running()
  %7 = icmp ne i32 %6, 0
  br i1 %7, label %9, label %8

8:                                                ; preds = %1
  store ptr null, ptr %2, align 8
  store i32 1, ptr %5, align 4
  br label %18

9:                                                ; preds = %1
  %10 = call noalias ptr @CRYPTO_zalloc(i64 noundef 1224, ptr noundef @.str, i32 noundef 117)
  store ptr %10, ptr %4, align 8, !tbaa !7
  %11 = load ptr, ptr %4, align 8, !tbaa !7
  %12 = icmp ne ptr %11, null
  br i1 %12, label %13, label %16

13:                                               ; preds = %9
  %14 = load ptr, ptr %4, align 8, !tbaa !7
  %15 = call ptr @ossl_prov_cipher_hw_rc4(i64 noundef 40)
  call void @ossl_cipher_generic_initkey(ptr noundef %14, i64 noundef 40, i64 noundef 8, i64 noundef 0, i32 noundef 0, i64 noundef 256, ptr noundef %15, ptr noundef null)
  br label %16

16:                                               ; preds = %13, %9
  %17 = load ptr, ptr %4, align 8, !tbaa !7
  store ptr %17, ptr %2, align 8
  store i32 1, ptr %5, align 4
  br label %18

18:                                               ; preds = %16, %8
  call void @llvm.lifetime.end.p0(i64 8, ptr %4) #4
  %19 = load ptr, ptr %2, align 8
  ret ptr %19
}

; Function Attrs: nounwind uwtable
define internal void @rc4_freectx(ptr noundef %0) #0 {
  %2 = alloca ptr, align 8
  %3 = alloca ptr, align 8
  store ptr %0, ptr %2, align 8, !tbaa !3
  call void @llvm.lifetime.start.p0(i64 8, ptr %3) #4
  %4 = load ptr, ptr %2, align 8, !tbaa !3
  store ptr %4, ptr %3, align 8, !tbaa !7
  %5 = load ptr, ptr %2, align 8, !tbaa !3
  call void @ossl_cipher_generic_reset_ctx(ptr noundef %5)
  %6 = load ptr, ptr %3, align 8, !tbaa !7
  call void @CRYPTO_clear_free(ptr noundef %6, i64 noundef 1224, ptr noundef @.str, i32 noundef 34)
  call void @llvm.lifetime.end.p0(i64 8, ptr %3) #4
  ret void
}

; Function Attrs: nounwind uwtable
define internal ptr @rc4_dupctx(ptr noundef %0) #0 {
  %2 = alloca ptr, align 8
  %3 = alloca ptr, align 8
  %4 = alloca ptr, align 8
  %5 = alloca ptr, align 8
  %6 = alloca i32, align 4
  store ptr %0, ptr %3, align 8, !tbaa !3
  call void @llvm.lifetime.start.p0(i64 8, ptr %4) #4
  %7 = load ptr, ptr %3, align 8, !tbaa !3
  store ptr %7, ptr %4, align 8, !tbaa !7
  call void @llvm.lifetime.start.p0(i64 8, ptr %5) #4
  %8 = call i32 @ossl_prov_is_running()
  %9 = icmp ne i32 %8, 0
  br i1 %9, label %11, label %10

10:                                               ; preds = %1
  store ptr null, ptr %2, align 8
  store i32 1, ptr %6, align 4
  br label %20

11:                                               ; preds = %1
  %12 = call noalias ptr @CRYPTO_malloc(i64 noundef 1224, ptr noundef @.str, i32 noundef 45)
  store ptr %12, ptr %5, align 8, !tbaa !7
  %13 = load ptr, ptr %5, align 8, !tbaa !7
  %14 = icmp eq ptr %13, null
  br i1 %14, label %15, label %16

15:                                               ; preds = %11
  store ptr null, ptr %2, align 8
  store i32 1, ptr %6, align 4
  br label %20

16:                                               ; preds = %11
  %17 = load ptr, ptr %5, align 8, !tbaa !7
  %18 = load ptr, ptr %4, align 8, !tbaa !7
  call void @llvm.memcpy.p0.p0.i64(ptr align 8 %17, ptr align 8 %18, i64 1224, i1 false), !tbaa.struct !9
  %19 = load ptr, ptr %5, align 8, !tbaa !7
  store ptr %19, ptr %2, align 8
  store i32 1, ptr %6, align 4
  br label %20

20:                                               ; preds = %16, %15, %10
  call void @llvm.lifetime.end.p0(i64 8, ptr %5) #4
  call void @llvm.lifetime.end.p0(i64 8, ptr %4) #4
  %21 = load ptr, ptr %2, align 8
  ret ptr %21
}

; Function Attrs: nounwind uwtable
define internal i32 @rc4_einit(ptr noundef %0, ptr noundef %1, i64 noundef %2, ptr noundef %3, i64 noundef %4, ptr noundef %5) #0 {
  %7 = alloca i32, align 4
  %8 = alloca ptr, align 8
  %9 = alloca ptr, align 8
  %10 = alloca i64, align 8
  %11 = alloca ptr, align 8
  %12 = alloca i64, align 8
  %13 = alloca ptr, align 8
  store ptr %0, ptr %8, align 8, !tbaa !3
  store ptr %1, ptr %9, align 8, !tbaa !15
  store i64 %2, ptr %10, align 8, !tbaa !13
  store ptr %3, ptr %11, align 8, !tbaa !15
  store i64 %4, ptr %12, align 8, !tbaa !13
  store ptr %5, ptr %13, align 8, !tbaa !21
  %14 = load ptr, ptr %8, align 8, !tbaa !3
  %15 = load ptr, ptr %9, align 8, !tbaa !15
  %16 = load i64, ptr %10, align 8, !tbaa !13
  %17 = load ptr, ptr %11, align 8, !tbaa !15
  %18 = load i64, ptr %12, align 8, !tbaa !13
  %19 = call i32 @ossl_cipher_generic_einit(ptr noundef %14, ptr noundef %15, i64 noundef %16, ptr noundef %17, i64 noundef %18, ptr noundef null)
  %20 = icmp ne i32 %19, 0
  br i1 %20, label %22, label %21

21:                                               ; preds = %6
  store i32 0, ptr %7, align 4
  br label %26

22:                                               ; preds = %6
  %23 = load ptr, ptr %8, align 8, !tbaa !3
  %24 = load ptr, ptr %13, align 8, !tbaa !21
  %25 = call i32 @ossl_cipher_var_keylen_set_ctx_params(ptr noundef %23, ptr noundef %24)
  store i32 %25, ptr %7, align 4
  br label %26

26:                                               ; preds = %22, %21
  %27 = load i32, ptr %7, align 4
  ret i32 %27
}

; Function Attrs: nounwind uwtable
define internal i32 @rc4_dinit(ptr noundef %0, ptr noundef %1, i64 noundef %2, ptr noundef %3, i64 noundef %4, ptr noundef %5) #0 {
  %7 = alloca i32, align 4
  %8 = alloca ptr, align 8
  %9 = alloca ptr, align 8
  %10 = alloca i64, align 8
  %11 = alloca ptr, align 8
  %12 = alloca i64, align 8
  %13 = alloca ptr, align 8
  store ptr %0, ptr %8, align 8, !tbaa !3
  store ptr %1, ptr %9, align 8, !tbaa !15
  store i64 %2, ptr %10, align 8, !tbaa !13
  store ptr %3, ptr %11, align 8, !tbaa !15
  store i64 %4, ptr %12, align 8, !tbaa !13
  store ptr %5, ptr %13, align 8, !tbaa !21
  %14 = load ptr, ptr %8, align 8, !tbaa !3
  %15 = load ptr, ptr %9, align 8, !tbaa !15
  %16 = load i64, ptr %10, align 8, !tbaa !13
  %17 = load ptr, ptr %11, align 8, !tbaa !15
  %18 = load i64, ptr %12, align 8, !tbaa !13
  %19 = call i32 @ossl_cipher_generic_dinit(ptr noundef %14, ptr noundef %15, i64 noundef %16, ptr noundef %17, i64 noundef %18, ptr noundef null)
  %20 = icmp ne i32 %19, 0
  br i1 %20, label %22, label %21

21:                                               ; preds = %6
  store i32 0, ptr %7, align 4
  br label %26

22:                                               ; preds = %6
  %23 = load ptr, ptr %8, align 8, !tbaa !3
  %24 = load ptr, ptr %13, align 8, !tbaa !21
  %25 = call i32 @ossl_cipher_var_keylen_set_ctx_params(ptr noundef %23, ptr noundef %24)
  store i32 %25, ptr %7, align 4
  br label %26

26:                                               ; preds = %22, %21
  %27 = load i32, ptr %7, align 4
  ret i32 %27
}

declare i32 @ossl_cipher_generic_stream_update(ptr noundef, ptr noundef, ptr noundef, i64 noundef, ptr noundef, i64 noundef) #1

declare i32 @ossl_cipher_generic_stream_final(ptr noundef, ptr noundef, ptr noundef, i64 noundef) #1

declare i32 @ossl_cipher_generic_cipher(ptr noundef, ptr noundef, ptr noundef, i64 noundef, ptr noundef, i64 noundef) #1

; Function Attrs: nounwind uwtable
define internal i32 @rc4_40_get_params(ptr noundef %0) #0 {
  %2 = alloca ptr, align 8
  store ptr %0, ptr %2, align 8, !tbaa !21
  %3 = load ptr, ptr %2, align 8, !tbaa !21
  %4 = call i32 @ossl_cipher_generic_get_params(ptr noundef %3, i32 noundef 0, i64 noundef 256, i64 noundef 40, i64 noundef 8, i64 noundef 0)
  ret i32 %4
}

declare i32 @ossl_cipher_generic_get_ctx_params(ptr noundef, ptr noundef) #1

declare i32 @ossl_cipher_var_keylen_set_ctx_params(ptr noundef, ptr noundef) #1

declare ptr @ossl_cipher_generic_gettable_params(ptr noundef) #1

declare ptr @ossl_cipher_generic_gettable_ctx_params(ptr noundef, ptr noundef) #1

declare ptr @ossl_cipher_var_keylen_settable_ctx_params(ptr noundef, ptr noundef) #1

; Function Attrs: nounwind uwtable
define internal ptr @rc4_128_newctx(ptr noundef %0) #0 {
  %2 = alloca ptr, align 8
  %3 = alloca ptr, align 8
  %4 = alloca ptr, align 8
  %5 = alloca i32, align 4
  store ptr %0, ptr %3, align 8, !tbaa !3
  call void @llvm.lifetime.start.p0(i64 8, ptr %4) #4
  %6 = call i32 @ossl_prov_is_running()
  %7 = icmp ne i32 %6, 0
  br i1 %7, label %9, label %8

8:                                                ; preds = %1
  store ptr null, ptr %2, align 8
  store i32 1, ptr %5, align 4
  br label %18

9:                                                ; preds = %1
  %10 = call noalias ptr @CRYPTO_zalloc(i64 noundef 1224, ptr noundef @.str, i32 noundef 119)
  store ptr %10, ptr %4, align 8, !tbaa !7
  %11 = load ptr, ptr %4, align 8, !tbaa !7
  %12 = icmp ne ptr %11, null
  br i1 %12, label %13, label %16

13:                                               ; preds = %9
  %14 = load ptr, ptr %4, align 8, !tbaa !7
  %15 = call ptr @ossl_prov_cipher_hw_rc4(i64 noundef 128)
  call void @ossl_cipher_generic_initkey(ptr noundef %14, i64 noundef 128, i64 noundef 8, i64 noundef 0, i32 noundef 0, i64 noundef 256, ptr noundef %15, ptr noundef null)
  br label %16

16:                                               ; preds = %13, %9
  %17 = load ptr, ptr %4, align 8, !tbaa !7
  store ptr %17, ptr %2, align 8
  store i32 1, ptr %5, align 4
  br label %18

18:                                               ; preds = %16, %8
  call void @llvm.lifetime.end.p0(i64 8, ptr %4) #4
  %19 = load ptr, ptr %2, align 8
  ret ptr %19
}

; Function Attrs: nounwind uwtable
define internal i32 @rc4_128_get_params(ptr noundef %0) #0 {
  %2 = alloca ptr, align 8
  store ptr %0, ptr %2, align 8, !tbaa !21
  %3 = load ptr, ptr %2, align 8, !tbaa !21
  %4 = call i32 @ossl_cipher_generic_get_params(ptr noundef %3, i32 noundef 0, i64 noundef 256, i64 noundef 128, i64 noundef 8, i64 noundef 0)
  ret i32 %4
}

; Function Attrs: nocallback nofree nosync nounwind willreturn memory(argmem: readwrite)
declare void @llvm.lifetime.start.p0(i64 immarg, ptr captures(none)) #2

declare i32 @ossl_prov_is_running() #1

declare noalias ptr @CRYPTO_zalloc(i64 noundef, ptr noundef, i32 noundef) #1

declare void @ossl_cipher_generic_initkey(ptr noundef, i64 noundef, i64 noundef, i64 noundef, i32 noundef, i64 noundef, ptr noundef, ptr noundef) #1

declare ptr @ossl_prov_cipher_hw_rc4(i64 noundef) #1

; Function Attrs: nocallback nofree nosync nounwind willreturn memory(argmem: readwrite)
declare void @llvm.lifetime.end.p0(i64 immarg, ptr captures(none)) #2

declare void @ossl_cipher_generic_reset_ctx(ptr noundef) #1

declare void @CRYPTO_clear_free(ptr noundef, i64 noundef, ptr noundef, i32 noundef) #1

declare noalias ptr @CRYPTO_malloc(i64 noundef, ptr noundef, i32 noundef) #1

; Function Attrs: nocallback nofree nounwind willreturn memory(argmem: readwrite)
declare void @llvm.memcpy.p0.p0.i64(ptr noalias writeonly captures(none), ptr noalias readonly captures(none), i64, i1 immarg) #3

declare i32 @ossl_cipher_generic_einit(ptr noundef, ptr noundef, i64 noundef, ptr noundef, i64 noundef, ptr noundef) #1

declare i32 @ossl_cipher_generic_dinit(ptr noundef, ptr noundef, i64 noundef, ptr noundef, i64 noundef, ptr noundef) #1

declare i32 @ossl_cipher_generic_get_params(ptr noundef, i32 noundef, i64 noundef, i64 noundef, i64 noundef, i64 noundef) #1


!llvm.module.flags = !{!0, !1, !2}

!0 = !{i32 1, !"wchar_size", i32 4}
!1 = !{i32 8, !"PIC Level", i32 2}
!2 = !{i32 7, !"uwtable", i32 2}
!3 = !{!4, !4, i64 0}
!4 = !{!"any pointer", !5, i64 0}
!5 = !{!"omnipotent char", !6, i64 0}
!6 = !{!"Simple C/C++ TBAA"}
!7 = !{!8, !8, i64 0}
!8 = !{!"p1 _ZTS15prov_rc4_ctx_st", !4, i64 0}
!9 = !{i64 0, i64 16, !10, i64 16, i64 16, !10, i64 32, i64 16, !10, i64 48, i64 8, !3, i64 56, i64 8, !10, i64 64, i64 4, !11, i64 72, i64 8, !13, i64 80, i64 8, !13, i64 88, i64 8, !13, i64 96, i64 8, !13, i64 104, i64 4, !11, i64 108, i64 1, !10, i64 112, i64 4, !11, i64 120, i64 8, !15, i64 128, i64 4, !11, i64 136, i64 8, !13, i64 144, i64 4, !11, i64 152, i64 8, !13, i64 160, i64 4, !11, i64 168, i64 8, !17, i64 176, i64 8, !3, i64 184, i64 8, !19, i64 192, i64 1032, !10}
!10 = !{!5, !5, i64 0}
!11 = !{!12, !12, i64 0}
!12 = !{!"int", !5, i64 0}
!13 = !{!14, !14, i64 0}
!14 = !{!"long", !5, i64 0}
!15 = !{!16, !16, i64 0}
!16 = !{!"p1 omnipotent char", !4, i64 0}
!17 = !{!18, !18, i64 0}
!18 = !{!"p1 _ZTS17prov_cipher_hw_st", !4, i64 0}
!19 = !{!20, !20, i64 0}
!20 = !{!"p1 _ZTS15ossl_lib_ctx_st", !4, i64 0}
!21 = !{!22, !22, i64 0}
!22 = !{!"p1 _ZTS13ossl_param_st", !4, i64 0}
