; ModuleID = 'bench/openssl/original/cipher_rc4.ll'
source_filename = "bench/openssl/original/cipher_rc4.ll"
target datalayout = "e-m:e-p270:32:32-p271:32:32-p272:64:64-i64:64-i128:128-f80:128-n8:16:32:64-S128"
target triple = "x86_64-pc-linux-gnu"

@ossl_rc440_functions = local_unnamed_addr constant [15 x { i32, [4 x i8], ptr }] [{ i32, [4 x i8], ptr } { i32 1, [4 x i8] zeroinitializer, ptr @rc4_40_newctx }, { i32, [4 x i8], ptr } { i32 7, [4 x i8] zeroinitializer, ptr @rc4_freectx }, { i32, [4 x i8], ptr } { i32 8, [4 x i8] zeroinitializer, ptr @rc4_dupctx }, { i32, [4 x i8], ptr } { i32 2, [4 x i8] zeroinitializer, ptr @rc4_einit }, { i32, [4 x i8], ptr } { i32 3, [4 x i8] zeroinitializer, ptr @rc4_dinit }, { i32, [4 x i8], ptr } { i32 4, [4 x i8] zeroinitializer, ptr @ossl_cipher_generic_stream_update }, { i32, [4 x i8], ptr } { i32 5, [4 x i8] zeroinitializer, ptr @ossl_cipher_generic_stream_final }, { i32, [4 x i8], ptr } { i32 6, [4 x i8] zeroinitializer, ptr @ossl_cipher_generic_cipher }, { i32, [4 x i8], ptr } { i32 9, [4 x i8] zeroinitializer, ptr @rc4_40_get_params }, { i32, [4 x i8], ptr } { i32 10, [4 x i8] zeroinitializer, ptr @ossl_cipher_generic_get_ctx_params }, { i32, [4 x i8], ptr } { i32 11, [4 x i8] zeroinitializer, ptr @ossl_cipher_var_keylen_set_ctx_params }, { i32, [4 x i8], ptr } { i32 12, [4 x i8] zeroinitializer, ptr @ossl_cipher_generic_gettable_params }, { i32, [4 x i8], ptr } { i32 13, [4 x i8] zeroinitializer, ptr @ossl_cipher_generic_gettable_ctx_params }, { i32, [4 x i8], ptr } { i32 14, [4 x i8] zeroinitializer, ptr @ossl_cipher_var_keylen_settable_ctx_params }, { i32, [4 x i8], ptr } zeroinitializer], align 16
@ossl_rc4128_functions = local_unnamed_addr constant [15 x { i32, [4 x i8], ptr }] [{ i32, [4 x i8], ptr } { i32 1, [4 x i8] zeroinitializer, ptr @rc4_128_newctx }, { i32, [4 x i8], ptr } { i32 7, [4 x i8] zeroinitializer, ptr @rc4_freectx }, { i32, [4 x i8], ptr } { i32 8, [4 x i8] zeroinitializer, ptr @rc4_dupctx }, { i32, [4 x i8], ptr } { i32 2, [4 x i8] zeroinitializer, ptr @rc4_einit }, { i32, [4 x i8], ptr } { i32 3, [4 x i8] zeroinitializer, ptr @rc4_dinit }, { i32, [4 x i8], ptr } { i32 4, [4 x i8] zeroinitializer, ptr @ossl_cipher_generic_stream_update }, { i32, [4 x i8], ptr } { i32 5, [4 x i8] zeroinitializer, ptr @ossl_cipher_generic_stream_final }, { i32, [4 x i8], ptr } { i32 6, [4 x i8] zeroinitializer, ptr @ossl_cipher_generic_cipher }, { i32, [4 x i8], ptr } { i32 9, [4 x i8] zeroinitializer, ptr @rc4_128_get_params }, { i32, [4 x i8], ptr } { i32 10, [4 x i8] zeroinitializer, ptr @ossl_cipher_generic_get_ctx_params }, { i32, [4 x i8], ptr } { i32 11, [4 x i8] zeroinitializer, ptr @ossl_cipher_var_keylen_set_ctx_params }, { i32, [4 x i8], ptr } { i32 12, [4 x i8] zeroinitializer, ptr @ossl_cipher_generic_gettable_params }, { i32, [4 x i8], ptr } { i32 13, [4 x i8] zeroinitializer, ptr @ossl_cipher_generic_gettable_ctx_params }, { i32, [4 x i8], ptr } { i32 14, [4 x i8] zeroinitializer, ptr @ossl_cipher_var_keylen_settable_ctx_params }, { i32, [4 x i8], ptr } zeroinitializer], align 16
@.str = private unnamed_addr constant [58 x i8] c"../openssl/providers/implementations/ciphers/cipher_rc4.c\00", align 1

; Function Attrs: nounwind uwtable
define internal ptr @rc4_40_newctx(ptr readnone captures(none) %0) #0 {
  %2 = tail call i32 @ossl_prov_is_running() #3
  %.not = icmp eq i32 %2, 0
  br i1 %.not, label %7, label %3

3:                                                ; preds = %1
  %4 = tail call noalias ptr @CRYPTO_zalloc(i64 noundef 1224, ptr noundef nonnull @.str, i32 noundef 117) #3
  %.not5 = icmp eq ptr %4, null
  br i1 %.not5, label %7, label %5

5:                                                ; preds = %3
  %6 = tail call ptr @ossl_prov_cipher_hw_rc4(i64 noundef 40) #3
  tail call void @ossl_cipher_generic_initkey(ptr noundef nonnull %4, i64 noundef 40, i64 noundef 8, i64 noundef 0, i32 noundef 0, i64 noundef 256, ptr noundef %6, ptr noundef null) #3
  br label %7

7:                                                ; preds = %3, %5, %1
  %.0 = phi ptr [ null, %1 ], [ %4, %5 ], [ null, %3 ]
  ret ptr %.0
}

; Function Attrs: nounwind uwtable
define internal void @rc4_freectx(ptr noundef %0) #0 {
  tail call void @ossl_cipher_generic_reset_ctx(ptr noundef %0) #3
  tail call void @CRYPTO_clear_free(ptr noundef %0, i64 noundef 1224, ptr noundef nonnull @.str, i32 noundef 34) #3
  ret void
}

; Function Attrs: nounwind uwtable
define internal noalias ptr @rc4_dupctx(ptr noundef readonly captures(none) %0) #0 {
  %2 = tail call i32 @ossl_prov_is_running() #3
  %.not = icmp eq i32 %2, 0
  br i1 %.not, label %7, label %3

3:                                                ; preds = %1
  %4 = tail call noalias ptr @CRYPTO_malloc(i64 noundef 1224, ptr noundef nonnull @.str, i32 noundef 45) #3
  %5 = icmp eq ptr %4, null
  br i1 %5, label %7, label %6

6:                                                ; preds = %3
  tail call void @llvm.memcpy.p0.p0.i64(ptr noundef nonnull align 8 dereferenceable(1224) %4, ptr noundef nonnull align 8 dereferenceable(1224) %0, i64 1224, i1 false), !tbaa.struct !3
  br label %7

7:                                                ; preds = %3, %1, %6
  %.0 = phi ptr [ %4, %6 ], [ null, %1 ], [ null, %3 ]
  ret ptr %.0
}

; Function Attrs: nounwind uwtable
define internal i32 @rc4_einit(ptr noundef %0, ptr noundef %1, i64 noundef %2, ptr noundef %3, i64 noundef %4, ptr noundef %5) #0 {
  %7 = tail call i32 @ossl_cipher_generic_einit(ptr noundef %0, ptr noundef %1, i64 noundef %2, ptr noundef %3, i64 noundef %4, ptr noundef null) #3
  %.not = icmp eq i32 %7, 0
  br i1 %.not, label %10, label %8

8:                                                ; preds = %6
  %9 = tail call i32 @ossl_cipher_var_keylen_set_ctx_params(ptr noundef %0, ptr noundef %5) #3
  br label %10

10:                                               ; preds = %6, %8
  %.0 = phi i32 [ %9, %8 ], [ 0, %6 ]
  ret i32 %.0
}

; Function Attrs: nounwind uwtable
define internal i32 @rc4_dinit(ptr noundef %0, ptr noundef %1, i64 noundef %2, ptr noundef %3, i64 noundef %4, ptr noundef %5) #0 {
  %7 = tail call i32 @ossl_cipher_generic_dinit(ptr noundef %0, ptr noundef %1, i64 noundef %2, ptr noundef %3, i64 noundef %4, ptr noundef null) #3
  %.not = icmp eq i32 %7, 0
  br i1 %.not, label %10, label %8

8:                                                ; preds = %6
  %9 = tail call i32 @ossl_cipher_var_keylen_set_ctx_params(ptr noundef %0, ptr noundef %5) #3
  br label %10

10:                                               ; preds = %6, %8
  %.0 = phi i32 [ %9, %8 ], [ 0, %6 ]
  ret i32 %.0
}

declare i32 @ossl_cipher_generic_stream_update(ptr noundef, ptr noundef, ptr noundef, i64 noundef, ptr noundef, i64 noundef) #1

declare i32 @ossl_cipher_generic_stream_final(ptr noundef, ptr noundef, ptr noundef, i64 noundef) #1

declare i32 @ossl_cipher_generic_cipher(ptr noundef, ptr noundef, ptr noundef, i64 noundef, ptr noundef, i64 noundef) #1

; Function Attrs: nounwind uwtable
define internal i32 @rc4_40_get_params(ptr noundef %0) #0 {
  %2 = tail call i32 @ossl_cipher_generic_get_params(ptr noundef %0, i32 noundef 0, i64 noundef 256, i64 noundef 40, i64 noundef 8, i64 noundef 0) #3
  ret i32 %2
}

declare i32 @ossl_cipher_generic_get_ctx_params(ptr noundef, ptr noundef) #1

declare i32 @ossl_cipher_var_keylen_set_ctx_params(ptr noundef, ptr noundef) #1

declare ptr @ossl_cipher_generic_gettable_params(ptr noundef) #1

declare ptr @ossl_cipher_generic_gettable_ctx_params(ptr noundef, ptr noundef) #1

declare ptr @ossl_cipher_var_keylen_settable_ctx_params(ptr noundef, ptr noundef) #1

; Function Attrs: nounwind uwtable
define internal ptr @rc4_128_newctx(ptr readnone captures(none) %0) #0 {
  %2 = tail call i32 @ossl_prov_is_running() #3
  %.not = icmp eq i32 %2, 0
  br i1 %.not, label %7, label %3

3:                                                ; preds = %1
  %4 = tail call noalias ptr @CRYPTO_zalloc(i64 noundef 1224, ptr noundef nonnull @.str, i32 noundef 119) #3
  %.not5 = icmp eq ptr %4, null
  br i1 %.not5, label %7, label %5

5:                                                ; preds = %3
  %6 = tail call ptr @ossl_prov_cipher_hw_rc4(i64 noundef 128) #3
  tail call void @ossl_cipher_generic_initkey(ptr noundef nonnull %4, i64 noundef 128, i64 noundef 8, i64 noundef 0, i32 noundef 0, i64 noundef 256, ptr noundef %6, ptr noundef null) #3
  br label %7

7:                                                ; preds = %3, %5, %1
  %.0 = phi ptr [ null, %1 ], [ %4, %5 ], [ null, %3 ]
  ret ptr %.0
}

; Function Attrs: nounwind uwtable
define internal i32 @rc4_128_get_params(ptr noundef %0) #0 {
  %2 = tail call i32 @ossl_cipher_generic_get_params(ptr noundef %0, i32 noundef 0, i64 noundef 256, i64 noundef 128, i64 noundef 8, i64 noundef 0) #3
  ret i32 %2
}

declare i32 @ossl_prov_is_running() local_unnamed_addr #1

declare noalias ptr @CRYPTO_zalloc(i64 noundef, ptr noundef, i32 noundef) local_unnamed_addr #1

declare void @ossl_cipher_generic_initkey(ptr noundef, i64 noundef, i64 noundef, i64 noundef, i32 noundef, i64 noundef, ptr noundef, ptr noundef) local_unnamed_addr #1

declare ptr @ossl_prov_cipher_hw_rc4(i64 noundef) local_unnamed_addr #1

declare void @ossl_cipher_generic_reset_ctx(ptr noundef) local_unnamed_addr #1

declare void @CRYPTO_clear_free(ptr noundef, i64 noundef, ptr noundef, i32 noundef) local_unnamed_addr #1

declare noalias ptr @CRYPTO_malloc(i64 noundef, ptr noundef, i32 noundef) local_unnamed_addr #1

; Function Attrs: mustprogress nocallback nofree nounwind willreturn memory(argmem: readwrite)
declare void @llvm.memcpy.p0.p0.i64(ptr noalias writeonly captures(none), ptr noalias readonly captures(none), i64, i1 immarg) #2

declare i32 @ossl_cipher_generic_einit(ptr noundef, ptr noundef, i64 noundef, ptr noundef, i64 noundef, ptr noundef) local_unnamed_addr #1

declare i32 @ossl_cipher_generic_dinit(ptr noundef, ptr noundef, i64 noundef, ptr noundef, i64 noundef, ptr noundef) local_unnamed_addr #1

declare i32 @ossl_cipher_generic_get_params(ptr noundef, i32 noundef, i64 noundef, i64 noundef, i64 noundef, i64 noundef) local_unnamed_addr #1


!llvm.module.flags = !{!0, !1, !2}

!0 = !{i32 1, !"wchar_size", i32 4}
!1 = !{i32 8, !"PIC Level", i32 2}
!2 = !{i32 7, !"uwtable", i32 2}
!3 = !{i64 0, i64 16, !4, i64 16, i64 16, !4, i64 32, i64 16, !4, i64 48, i64 8, !7, i64 56, i64 8, !4, i64 64, i64 4, !9, i64 72, i64 8, !11, i64 80, i64 8, !11, i64 88, i64 8, !11, i64 96, i64 8, !11, i64 104, i64 4, !9, i64 108, i64 1, !4, i64 112, i64 4, !9, i64 120, i64 8, !13, i64 128, i64 4, !9, i64 136, i64 8, !11, i64 144, i64 4, !9, i64 152, i64 8, !11, i64 160, i64 4, !9, i64 168, i64 8, !15, i64 176, i64 8, !7, i64 184, i64 8, !17, i64 192, i64 1032, !4}
!4 = !{!5, !5, i64 0}
!5 = !{!"omnipotent char", !6, i64 0}
!6 = !{!"Simple C/C++ TBAA"}
!7 = !{!8, !8, i64 0}
!8 = !{!"any pointer", !5, i64 0}
!9 = !{!10, !10, i64 0}
!10 = !{!"int", !5, i64 0}
!11 = !{!12, !12, i64 0}
!12 = !{!"long", !5, i64 0}
!13 = !{!14, !14, i64 0}
!14 = !{!"p1 omnipotent char", !8, i64 0}
!15 = !{!16, !16, i64 0}
!16 = !{!"p1 _ZTS17prov_cipher_hw_st", !8, i64 0}
!17 = !{!18, !18, i64 0}
!18 = !{!"p1 _ZTS15ossl_lib_ctx_st", !8, i64 0}
